target datalayout = "e-m:e-p270:32:32-p271:32:32-p272:64:64-i64:64-i128:128-f80:128-n8:16:32:64-S128"
target triple = "x86_64-pc-linux-gnu"

%"struct.VlWorkerThread::ExecRec" = type <{ ptr, ptr, i8, [7 x i8] }>

; Function Attrs: mustprogress nounwind uwtable
define linkonce_odr dso_local void @_ZN14VlWorkerThread7ExecRecC2Ev(ptr noundef nonnull align 8 dereferenceable(24) %0) unnamed_addr #0 comdat align 2 {
  %2 = alloca ptr, align 8
  store ptr %0, ptr %2, align 8
  %3 = load ptr, ptr %2, align 8
  %4 = getelementptr inbounds %"struct.VlWorkerThread::ExecRec", ptr %3, i32 0, i32 0
  store ptr null, ptr %4, align 8
  %5 = getelementptr inbounds %"struct.VlWorkerThread::ExecRec", ptr %3, i32 0, i32 1
  store ptr null, ptr %5, align 8
  %6 = getelementptr inbounds %"struct.VlWorkerThread::ExecRec", ptr %3, i32 0, i32 2
  store i8 0, ptr %6, align 8
  ret void
}

; Function Attrs: mustprogress uwtable
define dso_local void @_ZN14VlWorkerThread10workerLoopEv(ptr noundef nonnull align 8 dereferenceable(152) %0) #1 align 2 {
  %2 = alloca ptr, align 8
  %3 = alloca %"struct.VlWorkerThread::ExecRec", align 8
  store ptr %0, ptr %2, align 8
  %4 = load ptr, ptr %2, align 8
  call void @_ZN14VlWorkerThread7ExecRecC2Ev(ptr noundef nonnull align 8 dereferenceable(24) %3) #16
  call void @_ZN14VlWorkerThread9dequeWorkILb0EEEvPNS_7ExecRecE(ptr noundef nonnull align 8 dereferenceable(152) %4, ptr noundef %3)
  br label %5

5:                                                ; preds = %12, %1
  %6 = getelementptr inbounds %"struct.VlWorkerThread::ExecRec", ptr %3, i32 0, i32 0
  %7 = load ptr, ptr %6, align 8
  %8 = icmp eq ptr %7, @_ZL12shutdownTaskPvb
  %9 = xor i1 %8, true
  %10 = xor i1 %9, true
  br i1 %10, label %11, label %12

11:                                               ; preds = %5
  br label %20

12:                                               ; preds = %5
  %13 = getelementptr inbounds %"struct.VlWorkerThread::ExecRec", ptr %3, i32 0, i32 0
  %14 = load ptr, ptr %13, align 8
  %15 = getelementptr inbounds %"struct.VlWorkerThread::ExecRec", ptr %3, i32 0, i32 1
  %16 = load ptr, ptr %15, align 8
  %17 = getelementptr inbounds %"struct.VlWorkerThread::ExecRec", ptr %3, i32 0, i32 2
  %18 = load i8, ptr %17, align 8
  %19 = trunc i8 %18 to i1
  call void %14(ptr noundef %16, i1 noundef zeroext %19)
  call void @_ZN14VlWorkerThread9dequeWorkILb1EEEvPNS_7ExecRecE(ptr noundef nonnull align 8 dereferenceable(152) %4, ptr noundef %3)
  br label %5, !llvm.loop !9

20:                                               ; preds = %11
  ret void
}