; Function Attrs: mustprogress uwtable
define dso_local void @_ZN14VlWorkerThread10workerLoopEv(ptr noundef nonnull align 8 dereferenceable(152) %0) local_unnamed_addr #1 align 2 {
  %2 = alloca %"struct.VlWorkerThread::ExecRec", align 8
  call void @llvm.memset.p0.i64(ptr noundef nonnull align 8 dereferenceable(17) %2, i8 0, i64 17, i1 false)
  call void @_ZN14VlWorkerThread9dequeWorkILb0EEEvPNS_7ExecRecE(ptr noundef nonnull align 8 dereferenceable(152) %0, ptr noundef nonnull %2)
  %3 = load ptr, ptr %2, align 8
  %4 = icmp eq ptr %3, @_ZL12shutdownTaskPvb
  br i1 %4, label %._crit_edge, label %.lr.ph

.lr.ph:                                           ; preds = %1
  %5 = getelementptr inbounds i8, ptr %2, i64 8
  %6 = getelementptr inbounds i8, ptr %2, i64 16
  br label %7

7:                                                ; preds = %.lr.ph, %7
  %8 = phi ptr [ %3, %.lr.ph ], [ %12, %7 ]
  %9 = load ptr, ptr %5, align 8
  %10 = load i8, ptr %6, align 8
  %11 = trunc i8 %10 to i1
  call void %8(ptr noundef %9, i1 noundef zeroext %11)
  call void @_ZN14VlWorkerThread9dequeWorkILb1EEEvPNS_7ExecRecE(ptr noundef nonnull align 8 dereferenceable(152) %0, ptr noundef nonnull %2)
  %12 = load ptr, ptr %2, align 8
  %13 = icmp eq ptr %12, @_ZL12shutdownTaskPvb
  br i1 %13, label %._crit_edge, label %7, !llvm.loop !8

._crit_edge:                                      ; preds = %7, %1
  ret void
}